target datalayout = "e-m:e-p270:32:32-p271:32:32-p272:64:64-i64:64-i128:128-f80:128-n8:16:32:64-S128"
target triple = "x86_64-pc-linux-gnu"

; Function Attrs: nounwind uwtable
define i32 @cli_strntol_wrap(ptr noundef %0, i64 noundef %1, i32 noundef %2, i32 noundef %3, ptr noundef %4) #0 {
  %6 = alloca i32, align 4
  %7 = alloca ptr, align 8
  %8 = alloca i64, align 8
  %9 = alloca i32, align 4
  %10 = alloca i32, align 4
  %11 = alloca ptr, align 8
  %12 = alloca ptr, align 8
  %13 = alloca i64, align 8
  store ptr %0, ptr %7, align 8
  store i64 %1, ptr %8, align 8
  store i32 %2, ptr %9, align 4
  store i32 %3, ptr %10, align 4
  store ptr %4, ptr %11, align 8
  store ptr null, ptr %12, align 8
  %14 = load i64, ptr %8, align 8
  %15 = icmp eq i64 %14, 0
  br i1 %15, label %22, label %16

16:                                               ; preds = %5
  %17 = load ptr, ptr %7, align 8
  %18 = icmp ne ptr %17, null
  br i1 %18, label %19, label %22

19:                                               ; preds = %16
  %20 = load ptr, ptr %11, align 8
  %21 = icmp ne ptr %20, null
  br i1 %21, label %23, label %22

22:                                               ; preds = %19, %16, %5
  store i32 27, ptr %6, align 4
  br label %62

23:                                               ; preds = %19
  %24 = call ptr @__errno_location() #10
  store i32 0, ptr %24, align 4
  %25 = load ptr, ptr %7, align 8
  %26 = load i64, ptr %8, align 8
  %27 = load i32, ptr %10, align 4
  %28 = call i64 @cli_strntol(ptr noundef %25, i64 noundef %26, ptr noundef %12, i32 noundef %27)
  store i64 %28, ptr %13, align 8
  %29 = load i64, ptr %13, align 8
  %30 = icmp eq i64 %29, -9223372036854775808
  br i1 %30, label %34, label %31

31:                                               ; preds = %23
  %32 = load i64, ptr %13, align 8
  %33 = icmp eq i64 %32, 9223372036854775807
  br i1 %33, label %34, label %39

34:                                               ; preds = %31, %23
  %35 = call ptr @__errno_location() #10
  %36 = load i32, ptr %35, align 4
  %37 = icmp eq i32 %36, 34
  br i1 %37, label %38, label %39

38:                                               ; preds = %34
  store i32 27, ptr %6, align 4
  br label %62

39:                                               ; preds = %34, %31
  %40 = load ptr, ptr %12, align 8
  %41 = load ptr, ptr %7, align 8
  %42 = icmp eq ptr %40, %41
  br i1 %42, label %43, label %44

43:                                               ; preds = %39
  store i32 27, ptr %6, align 4
  br label %62

44:                                               ; preds = %39
  %45 = load i32, ptr %9, align 4
  %46 = icmp ne i32 %45, 0
  br i1 %46, label %47, label %59

47:                                               ; preds = %44
  %48 = load ptr, ptr %12, align 8
  %49 = load ptr, ptr %7, align 8
  %50 = load i64, ptr %8, align 8
  %51 = getelementptr inbounds i8, ptr %49, i64 %50
  %52 = icmp ult ptr %48, %51
  br i1 %52, label %53, label %59

53:                                               ; preds = %47
  %54 = load ptr, ptr %12, align 8
  %55 = load i8, ptr %54, align 1
  %56 = sext i8 %55 to i32
  %57 = icmp ne i32 %56, 0
  br i1 %57, label %58, label %59

58:                                               ; preds = %53
  store i32 27, ptr %6, align 4
  br label %62

59:                                               ; preds = %53, %47, %44
  %60 = load i64, ptr %13, align 8
  %61 = load ptr, ptr %11, align 8
  store i64 %60, ptr %61, align 8
  store i32 0, ptr %6, align 4
  br label %62

62:                                               ; preds = %59, %58, %43, %38, %22
  %63 = load i32, ptr %6, align 4
  ret i32 %63
}